; Function Attrs: mustprogress uwtable
define internal void @_ZN12_GLOBAL__N_14Impl7connectERKSt10shared_ptrIN3dap6ReaderEERKS1_INS2_6WriterEE(ptr noundef nonnull align 8 dereferenceable(844) %0, ptr noundef nonnull align 8 dereferenceable(16) %1, ptr noundef nonnull align 8 dereferenceable(16) %2) unnamed_addr #0 align 2 personality ptr @__gxx_personality_v0 {
  %4 = alloca %"class.dap::ContentReader", align 8
  %5 = alloca %"class.dap::ContentWriter", align 8
  %6 = getelementptr inbounds i8, ptr %0, i64 8
  %7 = atomicrmw xchg ptr %6, i8 1 seq_cst, align 1
  %8 = and i8 %7, 1
  %.not = icmp eq i8 %8, 0
  br i1 %.not, label %11, label %9

9:                                                ; preds = %3
  %10 = getelementptr inbounds i8, ptr %0, i64 144
  tail call void (ptr, ptr, ...) @_ZN12_GLOBAL__N_14Impl13EventHandlers5errorEPKcz(ptr noundef nonnull align 8 dereferenceable(456) %10, ptr noundef nonnull @.str)
  br label %_ZN3dap13ContentWriterD2Ev.exit

11:                                               ; preds = %3
  %12 = getelementptr inbounds i8, ptr %0, i64 840
  %13 = load i32, ptr %12, align 8
  call void @_ZN3dap13ContentReaderC1ERKSt10shared_ptrINS_6ReaderEENS_13OnInvalidDataE(ptr noundef nonnull align 8 dereferenceable(100) %4, ptr noundef nonnull align 8 dereferenceable(16) %1, i32 noundef %13)
  %14 = getelementptr inbounds i8, ptr %0, i64 16
  %15 = call noundef nonnull align 8 dereferenceable(100) ptr @_ZN3dap13ContentReaderaSEOS0_(ptr noundef nonnull align 8 dereferenceable(100) %14, ptr noundef nonnull align 8 dereferenceable(100) %4) #22
  call void @_ZN3dap13ContentReaderD2Ev(ptr noundef nonnull align 8 dereferenceable(100) %4) #22
  call void @_ZN3dap13ContentWriterC1ERKSt10shared_ptrINS_6WriterEE(ptr noundef nonnull align 8 dereferenceable(16) %5, ptr noundef nonnull align 8 dereferenceable(16) %2)
  %16 = getelementptr inbounds i8, ptr %0, i64 120
  %17 = call noundef nonnull align 8 dereferenceable(16) ptr @_ZN3dap13ContentWriteraSEOS0_(ptr noundef nonnull align 8 dereferenceable(16) %16, ptr noundef nonnull align 8 dereferenceable(16) %5) #22
  %18 = getelementptr inbounds i8, ptr %5, i64 8
  %19 = load ptr, ptr %18, align 8
  %.not.i.i.i.i = icmp eq ptr %19, null
  br i1 %.not.i.i.i.i, label %_ZN3dap13ContentWriterD2Ev.exit, label %20

20:                                               ; preds = %11
  %21 = getelementptr inbounds i8, ptr %19, i64 8
  %22 = load atomic i64, ptr %21 acquire, align 8
  %23 = icmp eq i64 %22, 4294967297
  %24 = trunc i64 %22 to i32
  br i1 %23, label %25, label %30

25:                                               ; preds = %20
  store i32 0, ptr %21, align 8
  %26 = getelementptr inbounds i8, ptr %19, i64 12
  store i32 0, ptr %26, align 4
  %27 = load ptr, ptr %19, align 8
  %28 = getelementptr inbounds i8, ptr %27, i64 16
  %29 = load ptr, ptr %28, align 8
  call void %29(ptr noundef nonnull align 8 dereferenceable(16) %19) #22
  br label %_ZNSt16_Sp_counted_baseILN9__gnu_cxx12_Lock_policyE2EE24_M_release_last_use_coldEv.exit.sink.split.i.i.i.i.i

30:                                               ; preds = %20
  %31 = load i8, ptr @__libc_single_threaded, align 1
  %.not.i.i.i.i.i = icmp eq i8 %31, 0
  br i1 %.not.i.i.i.i.i, label %34, label %32

32:                                               ; preds = %30
  %33 = add nsw i32 %24, -1
  store i32 %33, ptr %21, align 4
  br label %36

34:                                               ; preds = %30
  %35 = atomicrmw volatile add ptr %21, i32 -1 acq_rel, align 4
  br label %36

36:                                               ; preds = %34, %32
  %.0.i.i.i.i.i = phi i32 [ %24, %32 ], [ %35, %34 ]
  %37 = icmp eq i32 %.0.i.i.i.i.i, 1
  br i1 %37, label %38, label %_ZN3dap13ContentWriterD2Ev.exit

38:                                               ; preds = %36
  %39 = load ptr, ptr %19, align 8
  %40 = getelementptr inbounds i8, ptr %39, i64 16
  %41 = load ptr, ptr %40, align 8
  call void %41(ptr noundef nonnull align 8 dereferenceable(16) %19) #22
  %42 = getelementptr inbounds i8, ptr %19, i64 12
  %43 = load i8, ptr @__libc_single_threaded, align 1
  %.not.i.i.i.i.i.i.i = icmp eq i8 %43, 0
  br i1 %.not.i.i.i.i.i.i.i, label %47, label %44

44:                                               ; preds = %38
  %45 = load i32, ptr %42, align 4
  %46 = add nsw i32 %45, -1
  store i32 %46, ptr %42, align 4
  br label %49

47:                                               ; preds = %38
  %48 = atomicrmw volatile add ptr %42, i32 -1 acq_rel, align 4
  br label %49

49:                                               ; preds = %47, %44
  %.0.i.i.i.i.i.i.i = phi i32 [ %45, %44 ], [ %48, %47 ]
  %50 = icmp eq i32 %.0.i.i.i.i.i.i.i, 1
  br i1 %50, label %_ZNSt16_Sp_counted_baseILN9__gnu_cxx12_Lock_policyE2EE24_M_release_last_use_coldEv.exit.sink.split.i.i.i.i.i, label %_ZN3dap13ContentWriterD2Ev.exit

_ZNSt16_Sp_counted_baseILN9__gnu_cxx12_Lock_policyE2EE24_M_release_last_use_coldEv.exit.sink.split.i.i.i.i.i: ; preds = %49, %25
  %51 = load ptr, ptr %19, align 8
  %52 = getelementptr inbounds i8, ptr %51, i64 24
  %53 = load ptr, ptr %52, align 8
  call void %53(ptr noundef nonnull align 8 dereferenceable(16) %19) #22
  br label %_ZN3dap13ContentWriterD2Ev.exit

_ZN3dap13ContentWriterD2Ev.exit:                  ; preds = %_ZNSt16_Sp_counted_baseILN9__gnu_cxx12_Lock_policyE2EE24_M_release_last_use_coldEv.exit.sink.split.i.i.i.i.i, %49, %36, %11, %9
  ret void
}